target datalayout = "e-m:e-p270:32:32-p271:32:32-p272:64:64-i64:64-i128:128-f80:128-n8:16:32:64-S128"
target triple = "x86_64-pc-linux-gnu"

; Function Attrs: nounwind uwtable
define hidden double @opj_dwt_getnorm(i32 noundef %0, i32 noundef %1) #0 {
  %3 = alloca i32, align 4
  %4 = alloca i32, align 4
  store i32 %0, ptr %3, align 4, !tbaa !24
  store i32 %1, ptr %4, align 4, !tbaa !24
  %5 = load i32, ptr %4, align 4, !tbaa !24
  %6 = icmp eq i32 %5, 0
  br i1 %6, label %7, label %11

7:                                                ; preds = %2
  %8 = load i32, ptr %3, align 4, !tbaa !24
  %9 = icmp uge i32 %8, 10
  br i1 %9, label %10, label %11

10:                                               ; preds = %7
  store i32 9, ptr %3, align 4, !tbaa !24
  br label %19

11:                                               ; preds = %7, %2
  %12 = load i32, ptr %4, align 4, !tbaa !24
  %13 = icmp ugt i32 %12, 0
  br i1 %13, label %14, label %18

14:                                               ; preds = %11
  %15 = load i32, ptr %3, align 4, !tbaa !24
  %16 = icmp uge i32 %15, 9
  br i1 %16, label %17, label %18

17:                                               ; preds = %14
  store i32 8, ptr %3, align 4, !tbaa !24
  br label %18

18:                                               ; preds = %17, %14, %11
  br label %19

19:                                               ; preds = %18, %10
  %20 = load i32, ptr %4, align 4, !tbaa !24
  %21 = zext i32 %20 to i64
  %22 = getelementptr inbounds nuw [4 x [10 x double]], ptr @opj_dwt_norms, i64 0, i64 %21
  %23 = load i32, ptr %3, align 4, !tbaa !24
  %24 = zext i32 %23 to i64
  %25 = getelementptr inbounds nuw [10 x double], ptr %22, i64 0, i64 %24
  %26 = load double, ptr %25, align 8, !tbaa !110
  ret double %26
}