; Function Attrs: mustprogress nofree norecurse nosync nounwind willreturn memory(none) uwtable
define hidden double @opj_dwt_getnorm(i32 noundef %0, i32 noundef %1) local_unnamed_addr #5 {
  %3 = icmp eq i32 %1, 0
  %4 = icmp ugt i32 %0, 9
  %or.cond = and i1 %4, %3
  %5 = tail call i32 @llvm.umin.i32(i32 %0, i32 8)
  %spec.store.select = select i1 %3, i32 %0, i32 %5
  %6 = zext i32 %spec.store.select to i64
  %.0 = select i1 %or.cond, i64 9, i64 %6
  %7 = zext i32 %1 to i64
  %8 = getelementptr inbounds nuw [4 x [10 x double]], ptr @opj_dwt_norms, i64 0, i64 %7, i64 %.0
  %9 = load double, ptr %8, align 8, !tbaa !148
  ret double %9
}